; Function Attrs: mustprogress uwtable
define void @_ZN3fmt3v114file5closeEv(ptr noundef nonnull align 4 captures(none) dereferenceable(4) %0) local_unnamed_addr #6 align 2 personality ptr @__gxx_personality_v0 {
  %2 = alloca %"struct.fmt::v11::detail::format_arg_store.41", align 16
  %3 = load i32, ptr %0, align 4, !tbaa !22
  %4 = icmp eq i32 %3, -1
  br i1 %4, label %14, label %5

5:                                                ; preds = %1
  %6 = tail call i32 @close(i32 noundef %3)
  store i32 -1, ptr %0, align 4, !tbaa !22
  %.not = icmp eq i32 %6, 0
  br i1 %.not, label %14, label %7

7:                                                ; preds = %5
  %8 = tail call ptr @__cxa_allocate_exception(i64 32) #17
  %9 = tail call ptr @__errno_location() #16
  %10 = load i32, ptr %9, align 4, !tbaa !9
  call void @llvm.lifetime.start.p0(i64 16, ptr nonnull %2) #17, !noalias !28
  invoke void @_ZN3fmt3v1113vsystem_errorEiNS0_17basic_string_viewIcEENS0_17basic_format_argsINS0_7contextEEE(ptr dead_on_unwind writable sret(%"class.std::system_error") align 8 %8, i32 noundef %10, ptr nonnull @.str, i64 17, i64 0, ptr nonnull %2)
          to label %11 unwind label %12

11:                                               ; preds = %7
  call void @llvm.lifetime.end.p0(i64 16, ptr nonnull %2) #17, !noalias !28
  call void @__cxa_throw(ptr %8, ptr nonnull @_ZTISt12system_error, ptr nonnull @_ZNSt12system_errorD1Ev) #19
  unreachable

12:                                               ; preds = %7
  %13 = landingpad { ptr, i32 }
          cleanup
  call void @__cxa_free_exception(ptr %8) #17
  resume { ptr, i32 } %13

14:                                               ; preds = %5, %1
  ret void
}